target datalayout = "e-m:e-p270:32:32-p271:32:32-p272:64:64-i64:64-i128:128-f80:128-n8:16:32:64-S128"
target triple = "x86_64-pc-linux-gnu"

; Function Attrs: inlinehint nounwind uwtable
define internal i32 @pg_rotate_left32(i32 noundef %0, i32 noundef %1) #10 {
  %3 = alloca i32, align 4
  %4 = alloca i32, align 4
  store i32 %0, ptr %3, align 4
  store i32 %1, ptr %4, align 4
  %5 = load i32, ptr %3, align 4
  %6 = load i32, ptr %4, align 4
  %7 = shl i32 %5, %6
  %8 = load i32, ptr %3, align 4
  %9 = load i32, ptr %4, align 4
  %10 = sub i32 32, %9
  %11 = lshr i32 %8, %10
  %12 = or i32 %7, %11
  ret i32 %12
}

; Function Attrs: nounwind uwtable
define internal i32 @guc_name_hash(ptr noundef %0, i64 noundef %1) #0 {
  %3 = alloca ptr, align 8
  %4 = alloca i64, align 8
  %5 = alloca i32, align 4
  %6 = alloca ptr, align 8
  %7 = alloca i8, align 1
  store ptr %0, ptr %3, align 8
  store i64 %1, ptr %4, align 8
  call void @llvm.lifetime.start.p0(i64 4, ptr %5) #16
  store i32 0, ptr %5, align 4
  call void @llvm.lifetime.start.p0(i64 8, ptr %6) #16
  %8 = load ptr, ptr %3, align 8
  %9 = load ptr, ptr %8, align 8
  store ptr %9, ptr %6, align 8
  br label %10

10:                                               ; preds = %30, %2
  %11 = load ptr, ptr %6, align 8
  %12 = load i8, ptr %11, align 1
  %13 = icmp ne i8 %12, 0
  br i1 %13, label %14, label %37

14:                                               ; preds = %10
  call void @llvm.lifetime.start.p0(i64 1, ptr %7) #16
  %15 = load ptr, ptr %6, align 8
  %16 = getelementptr inbounds nuw i8, ptr %15, i32 1
  store ptr %16, ptr %6, align 8
  %17 = load i8, ptr %15, align 1
  store i8 %17, ptr %7, align 1
  %18 = load i8, ptr %7, align 1
  %19 = sext i8 %18 to i32
  %20 = icmp sge i32 %19, 65
  br i1 %20, label %21, label %30

21:                                               ; preds = %14
  %22 = load i8, ptr %7, align 1
  %23 = sext i8 %22 to i32
  %24 = icmp sle i32 %23, 90
  br i1 %24, label %25, label %30

25:                                               ; preds = %21
  %26 = load i8, ptr %7, align 1
  %27 = sext i8 %26 to i32
  %28 = add i32 %27, 32
  %29 = trunc i32 %28 to i8
  store i8 %29, ptr %7, align 1
  br label %30

30:                                               ; preds = %25, %21, %14
  %31 = load i32, ptr %5, align 4
  %32 = call i32 @pg_rotate_left32(i32 noundef %31, i32 noundef 5)
  store i32 %32, ptr %5, align 4
  %33 = load i8, ptr %7, align 1
  %34 = sext i8 %33 to i32
  %35 = load i32, ptr %5, align 4
  %36 = xor i32 %35, %34
  store i32 %36, ptr %5, align 4
  call void @llvm.lifetime.end.p0(i64 1, ptr %7) #16
  br label %10, !llvm.loop !27

37:                                               ; preds = %10
  %38 = load i32, ptr %5, align 4
  call void @llvm.lifetime.end.p0(i64 8, ptr %6) #16
  call void @llvm.lifetime.end.p0(i64 4, ptr %5) #16
  ret i32 %38
}