; Function Attrs: nofree norecurse nosync nounwind memory(read, inaccessiblemem: none) uwtable
define internal i32 @guc_name_hash(ptr noundef readonly captures(none) %0, i64 %1) #7 {
  %3 = load ptr, ptr %0, align 8
  %4 = load i8, ptr %3, align 1
  %.not15 = icmp eq i8 %4, 0
  br i1 %.not15, label %._crit_edge, label %.lr.ph

.lr.ph:                                           ; preds = %2, %.lr.ph
  %5 = phi i8 [ %12, %.lr.ph ], [ %4, %2 ]
  %.01117 = phi ptr [ %6, %.lr.ph ], [ %3, %2 ]
  %.01216 = phi i32 [ %11, %.lr.ph ], [ 0, %2 ]
  %6 = getelementptr inbounds nuw i8, ptr %.01117, i64 1
  %7 = add i8 %5, -65
  %or.cond = icmp ult i8 %7, 26
  %8 = or disjoint i8 %5, 32
  %spec.select = select i1 %or.cond, i8 %8, i8 %5
  %9 = tail call noundef i32 @llvm.fshl.i32(i32 %.01216, i32 %.01216, i32 5)
  %10 = sext i8 %spec.select to i32
  %11 = xor i32 %9, %10
  %12 = load i8, ptr %6, align 1
  %.not = icmp eq i8 %12, 0
  br i1 %.not, label %._crit_edge, label %.lr.ph, !llvm.loop !28

._crit_edge:                                      ; preds = %.lr.ph, %2
  %.012.lcssa = phi i32 [ 0, %2 ], [ %11, %.lr.ph ]
  ret i32 %.012.lcssa
}